; ModuleID = '43/1033.c'
source_filename = "43/1033.c"
target datalayout = "e-m:e-p270:32:32-p271:32:32-p272:64:64-i64:64-f80:128-n8:16:32:64-S128"
target triple = "x86_64-pc-linux-gnu"

@.str = private unnamed_addr constant [3 x i8] c"%d\00", align 1
@.str.1 = private unnamed_addr constant [7 x i8] c"%d %d\0A\00", align 1

; Function Attrs: noinline nounwind uwtable
define dso_local i32 @main() #0 {
  %1 = alloca i32, align 4
  %2 = alloca i32, align 4
  %3 = alloca i32, align 4
  %4 = alloca i32, align 4
  %5 = alloca i32, align 4
  %6 = alloca i32, align 4
  %7 = alloca i32, align 4
  store i32 0, i32* %1, align 4
  store i32 0, i32* %6, align 4
  store i32 0, i32* %7, align 4
  %8 = call i32 (i8*, ...) @__isoc99_scanf(i8* getelementptr inbounds ([3 x i8], [3 x i8]* @.str, i64 0, i64 0), i32* %2)
  store i32 3, i32* %3, align 4
  br label %9

9:                                                ; preds = %68, %0
  %10 = load i32, i32* %3, align 4
  %11 = load i32, i32* %2, align 4
  %12 = sdiv i32 %11, 2
  %13 = icmp sle i32 %10, %12
  br i1 %13, label %14, label %71

14:                                               ; preds = %9
  store i32 0, i32* %6, align 4
  store i32 0, i32* %7, align 4
  %15 = load i32, i32* %3, align 4
  store i32 %15, i32* %5, align 4
  store i32 2, i32* %4, align 4
  br label %16

16:                                               ; preds = %28, %14
  %17 = load i32, i32* %4, align 4
  %18 = load i32, i32* %3, align 4
  %19 = sdiv i32 %18, 2
  %20 = icmp sle i32 %17, %19
  br i1 %20, label %21, label %31

21:                                               ; preds = %16
  %22 = load i32, i32* %3, align 4
  %23 = load i32, i32* %4, align 4
  %24 = srem i32 %22, %23
  %25 = icmp eq i32 %24, 0
  br i1 %25, label %26, label %27

26:                                               ; preds = %21
  store i32 1, i32* %6, align 4
  br label %27

27:                                               ; preds = %26, %21
  br label %28

28:                                               ; preds = %27
  %29 = load i32, i32* %4, align 4
  %30 = add nsw i32 %29, 1
  store i32 %30, i32* %4, align 4
  br label %16

31:                                               ; preds = %16
  %32 = load i32, i32* %6, align 4
  %33 = icmp eq i32 %32, 0
  br i1 %33, label %34, label %66

34:                                               ; preds = %31
  %35 = load i32, i32* %2, align 4
  %36 = load i32, i32* %3, align 4
  %37 = sub nsw i32 %35, %36
  store i32 %37, i32* %3, align 4
  store i32 2, i32* %4, align 4
  br label %38

38:                                               ; preds = %50, %34
  %39 = load i32, i32* %4, align 4
  %40 = load i32, i32* %3, align 4
  %41 = sdiv i32 %40, 2
  %42 = icmp sle i32 %39, %41
  br i1 %42, label %43, label %53

43:                                               ; preds = %38
  %44 = load i32, i32* %3, align 4
  %45 = load i32, i32* %4, align 4
  %46 = srem i32 %44, %45
  %47 = icmp eq i32 %46, 0
  br i1 %47, label %48, label %49

48:                                               ; preds = %43
  store i32 1, i32* %7, align 4
  br label %49

49:                                               ; preds = %48, %43
  br label %50

50:                                               ; preds = %49
  %51 = load i32, i32* %4, align 4
  %52 = add nsw i32 %51, 1
  store i32 %52, i32* %4, align 4
  br label %38

53:                                               ; preds = %38
  %54 = load i32, i32* %6, align 4
  %55 = icmp eq i32 %54, 0
  br i1 %55, label %56, label %65

56:                                               ; preds = %53
  %57 = load i32, i32* %7, align 4
  %58 = icmp eq i32 %57, 0
  br i1 %58, label %59, label %65

59:                                               ; preds = %56
  %60 = load i32, i32* %2, align 4
  %61 = load i32, i32* %3, align 4
  %62 = sub nsw i32 %60, %61
  %63 = load i32, i32* %3, align 4
  %64 = call i32 (i8*, ...) @printf(i8* getelementptr inbounds ([7 x i8], [7 x i8]* @.str.1, i64 0, i64 0), i32 %62, i32 %63)
  br label %65

65:                                               ; preds = %59, %56, %53
  br label %66

66:                                               ; preds = %65, %31
  %67 = load i32, i32* %5, align 4
  store i32 %67, i32* %3, align 4
  br label %68

68:                                               ; preds = %66
  %69 = load i32, i32* %3, align 4
  %70 = add nsw i32 %69, 1
  store i32 %70, i32* %3, align 4
  br label %9

71:                                               ; preds = %9
  ret i32 0
}

declare dso_local i32 @__isoc99_scanf(i8*, ...) #1

declare dso_local i32 @printf(i8*, ...) #1


!llvm.module.flags = !{!0}
!llvm.ident = !{!1}

!0 = !{i32 1, !"wchar_size", i32 4}
!1 = !{!"clang version 10.0.0-4ubuntu1 "}
